target datalayout = "e-m:e-p270:32:32-p271:32:32-p272:64:64-i64:64-i128:128-f80:128-n8:16:32:64-S128"
target triple = "x86_64-unknown-linux-gnu"

%struct.utils__SkipUntilSpecification = type { i32, i32, %union.anon }
%union.anon = type { double }

; Function Attrs: nounwind sspstrong uwtable
define dso_local i32 @flac__utils_canonicalize_skip_until_specification(ptr noundef %spec, i32 noundef %sample_rate) #0 {
entry:
  %retval = alloca i32, align 4
  %spec.addr = alloca ptr, align 8
  %sample_rate.addr = alloca i32, align 4
  %samples = alloca double, align 8
  store ptr %spec, ptr %spec.addr, align 8
  store i32 %sample_rate, ptr %sample_rate.addr, align 4
  %0 = load ptr, ptr %spec.addr, align 8
  %value_is_samples = getelementptr inbounds %struct.utils__SkipUntilSpecification, ptr %0, i32 0, i32 1
  %1 = load i32, ptr %value_is_samples, align 4
  %tobool = icmp ne i32 %1, 0
  br i1 %tobool, label %if.end8, label %if.then

if.then:                                          ; preds = %entry
  %2 = load ptr, ptr %spec.addr, align 8
  %value = getelementptr inbounds %struct.utils__SkipUntilSpecification, ptr %2, i32 0, i32 2
  %3 = load double, ptr %value, align 8
  %4 = load i32, ptr %sample_rate.addr, align 4
  %conv = uitofp i32 %4 to double
  %mul = fmul double %3, %conv
  store double %mul, ptr %samples, align 8
  %5 = load double, ptr %samples, align 8
  %cmp = fcmp oge double %5, 0x43E0000000000000
  br i1 %cmp, label %if.then4, label %lor.lhs.false

lor.lhs.false:                                    ; preds = %if.then
  %6 = load double, ptr %samples, align 8
  %cmp2 = fcmp ole double %6, 0xC3E0000000000000
  br i1 %cmp2, label %if.then4, label %if.end

if.then4:                                         ; preds = %lor.lhs.false, %if.then
  store i32 0, ptr %retval, align 4
  br label %return

if.end:                                           ; preds = %lor.lhs.false
  %7 = load double, ptr %samples, align 8
  %conv5 = fptosi double %7 to i64
  %8 = load ptr, ptr %spec.addr, align 8
  %value6 = getelementptr inbounds %struct.utils__SkipUntilSpecification, ptr %8, i32 0, i32 2
  store i64 %conv5, ptr %value6, align 8
  %9 = load ptr, ptr %spec.addr, align 8
  %value_is_samples7 = getelementptr inbounds %struct.utils__SkipUntilSpecification, ptr %9, i32 0, i32 1
  store i32 1, ptr %value_is_samples7, align 4
  br label %if.end8

if.end8:                                          ; preds = %if.end, %entry
  store i32 1, ptr %retval, align 4
  br label %return

return:                                           ; preds = %if.end8, %if.then4
  %10 = load i32, ptr %retval, align 4
  ret i32 %10
}