; Function Attrs: mustprogress nofree norecurse nosync nounwind sspstrong willreturn memory(argmem: readwrite) uwtable
define dso_local range(i32 0, 2) i32 @flac__utils_canonicalize_skip_until_specification(ptr noundef captures(none) %spec, i32 noundef %sample_rate) local_unnamed_addr #9 {
entry:
  %value_is_samples = getelementptr inbounds nuw i8, ptr %spec, i64 4
  %0 = load i32, ptr %value_is_samples, align 4
  %tobool.not = icmp eq i32 %0, 0
  br i1 %tobool.not, label %if.then, label %return

if.then:                                          ; preds = %entry
  %value = getelementptr inbounds nuw i8, ptr %spec, i64 8
  %1 = load double, ptr %value, align 8
  %conv = uitofp i32 %sample_rate to double
  %mul = fmul double %1, %conv
  %2 = tail call double @llvm.fabs.f64(double %mul)
  %or.cond = fcmp ult double %2, 0x43E0000000000000
  br i1 %or.cond, label %if.end, label %return

if.end:                                           ; preds = %if.then
  %conv5 = fptosi double %mul to i64
  store i64 %conv5, ptr %value, align 8
  store i32 1, ptr %value_is_samples, align 4
  br label %return

return:                                           ; preds = %entry, %if.end, %if.then
  %retval.0 = phi i32 [ 0, %if.then ], [ 1, %if.end ], [ 1, %entry ]
  ret i32 %retval.0
}